target datalayout = "e-m:e-p270:32:32-p271:32:32-p272:64:64-i64:64-i128:128-f80:128-n8:16:32:64-S128"
target triple = "x86_64-pc-linux-gnu"

; Function Attrs: nounwind uwtable
define ptr @NewIntArray(i32 noundef %0) #0 {
  %2 = alloca ptr, align 8
  %3 = alloca i32, align 4
  %4 = alloca ptr, align 8
  %5 = alloca i32, align 4
  store i32 %0, ptr %3, align 4, !tbaa !31
  call void @llvm.lifetime.start.p0(i64 8, ptr %4) #5
  %6 = load i32, ptr %3, align 4, !tbaa !31
  %7 = icmp sle i32 %6, 0
  br i1 %7, label %8, label %9

8:                                                ; preds = %1
  store ptr null, ptr %2, align 8
  store i32 1, ptr %5, align 4
  br label %15

9:                                                ; preds = %1
  store ptr null, ptr %4, align 8, !tbaa !32
  %10 = load i32, ptr %3, align 4, !tbaa !31
  %11 = sext i32 %10 to i64
  %12 = mul i64 %11, 4
  %13 = call noalias ptr @malloc(i64 noundef %12) #6
  store ptr %13, ptr %4, align 8, !tbaa !32
  %14 = load ptr, ptr %4, align 8, !tbaa !32
  store ptr %14, ptr %2, align 8
  store i32 1, ptr %5, align 4
  br label %15

15:                                               ; preds = %9, %8
  call void @llvm.lifetime.end.p0(i64 8, ptr %4) #5
  %16 = load ptr, ptr %2, align 8
  ret ptr %16
}